; Function Attrs: mustprogress nounwind uwtable
define hidden noundef zeroext i1 @_ZNK19OpenColorIO_v2_5dev17CTFReaderLut1DElt18isOpParameterValidEPKc(ptr noundef nonnull readonly align 8 captures(none) dereferenceable(240) %0, ptr noundef %1) unnamed_addr #3 align 2 personality ptr @__gxx_personality_v0 {
  %3 = tail call noundef zeroext i1 @_ZNK19OpenColorIO_v2_5dev14CTFReaderOpElt18isOpParameterValidEPKc(ptr noundef nonnull align 8 dereferenceable(104) %0, ptr noundef %1) #33
  br i1 %3, label %16, label %4

4:                                                ; preds = %2
  %5 = invoke noundef i32 @_ZN19OpenColorIO_v2_5dev8Platform10StrcasecmpEPKcS2_(ptr noundef nonnull @_ZN19OpenColorIO_v2_5devL18ATTR_INTERPOLATIONE, ptr noundef %1)
          to label %6 unwind label %18

6:                                                ; preds = %4
  %7 = icmp eq i32 %5, 0
  br i1 %7, label %16, label %8

8:                                                ; preds = %6
  %9 = invoke noundef i32 @_ZN19OpenColorIO_v2_5dev8Platform10StrcasecmpEPKcS2_(ptr noundef nonnull @_ZN19OpenColorIO_v2_5devL16ATTR_HALF_DOMAINE, ptr noundef %1)
          to label %10 unwind label %18

10:                                               ; preds = %8
  %11 = icmp eq i32 %9, 0
  br i1 %11, label %16, label %12

12:                                               ; preds = %10
  %13 = invoke noundef i32 @_ZN19OpenColorIO_v2_5dev8Platform10StrcasecmpEPKcS2_(ptr noundef nonnull @_ZN19OpenColorIO_v2_5devL14ATTR_RAW_HALFSE, ptr noundef %1)
          to label %14 unwind label %18

14:                                               ; preds = %12
  %15 = icmp eq i32 %13, 0
  br label %16

16:                                               ; preds = %14, %10, %6, %2
  %17 = phi i1 [ true, %10 ], [ true, %6 ], [ true, %2 ], [ %15, %14 ]
  ret i1 %17

18:                                               ; preds = %12, %8, %4
  %19 = landingpad { ptr, i32 }
          catch ptr null
  %20 = extractvalue { ptr, i32 } %19, 0
  tail call void @__clang_call_terminate(ptr %20) #37
  unreachable
}